target datalayout = "e-m:e-p270:32:32-p271:32:32-p272:64:64-i64:64-i128:128-f80:128-n8:16:32:64-S128"
target triple = "x86_64-pc-linux-gnu"

%struct.ssl_connection_st = type { %struct.ssl_st, ptr, i32, ptr, ptr, ptr, i32, ptr, i32, i32, i32, i32, %struct.OSSL_TIME, %struct.OSSL_TIME, %struct.ossl_statem_st, i32, ptr, ptr, i64, i64, i64, %struct.ossl_quic_tls_callbacks_st, ptr, ptr, %struct.anon, ptr, ptr, ptr, i32, ptr, %struct.ssl_dane_st, ptr, ptr, ptr, ptr, i32, [64 x i8], [64 x i8], [64 x i8], [64 x i8], [64 x i8], [64 x i8], [64 x i8], [64 x i8], [64 x i8], [64 x i8], [64 x i8], [64 x i8], ptr, [64 x i8], i64, i32, i64, [32 x i8], ptr, ptr, ptr, i64, ptr, [32 x i8], i64, i32, ptr, ptr, i32, i32, ptr, ptr, ptr, ptr, ptr, i64, ptr, ptr, i64, i32, i32, i32, i64, i32, i32, i64, i64, i64, %struct.anon.1, ptr, i32, ptr, ptr, ptr, i32, ptr, ptr, ptr, i32, i32, i32, i32, ptr, i64, i32, ptr, %struct.srp_ctx_st, ptr, %struct.record_layer_st, ptr, ptr, ptr, ptr, i64, i32, i32, i32, i64, i64, i64, ptr, ptr, ptr, ptr, ptr, i64, ptr, i64, ptr, i64 }
%struct.ssl_st = type { i32, ptr, ptr, ptr, %struct.CRYPTO_REF_COUNT, ptr, %struct.crypto_ex_data_st }
%struct.CRYPTO_REF_COUNT = type { i32 }
%struct.crypto_ex_data_st = type { ptr, ptr }
%struct.OSSL_TIME = type { i64 }
%struct.ossl_statem_st = type { i32, i32, i32, i32, i32, i32, i32, i32, i32, i32, i32, i32, i32, ptr, ptr, ptr, i8 }
%struct.ossl_quic_tls_callbacks_st = type { ptr, ptr, ptr, ptr, ptr, ptr }
%struct.anon = type { i64, [32 x i8], [32 x i8], ptr, ptr, i32, i32, i32, i32, [2 x i8], i32, i32, i32, i32, %struct.anon.0, [64 x i8], i64, [64 x i8], i64, i32, i32, ptr, i64, ptr, i64, i32, i8, i8, i16, ptr, i16 }
%struct.anon.0 = type { [128 x i8], i64, [128 x i8], i64, i64, i32, ptr, ptr, [4 x ptr], [4 x i16], i64, i32, ptr, i64, ptr, i64, ptr, ptr, ptr, i32, i64, ptr, i32, ptr, i64, ptr, i64, ptr, i64, ptr, ptr, ptr, ptr, i64, i64, ptr, ptr, i32, i32, i32, i32 }
%struct.ssl_dane_st = type { ptr, ptr, ptr, ptr, ptr, i32, i32, i32, i64 }
%struct.anon.1 = type { [29 x i8], ptr, ptr, ptr, i32, ptr, i16, i32, %struct.anon.2, i32, i32, i64, ptr, i64, ptr, i64, ptr, i64, ptr, i64, ptr, i64, ptr, ptr, ptr, ptr, ptr, ptr, ptr, i64, ptr, i64, i32, i32, i32, i32, ptr, i64, i32, i8, i32, [4 x i32], i32, i8, i8, i8, i8 }
%struct.anon.2 = type { ptr, ptr, ptr, i64 }
%struct.srp_ctx_st = type { ptr, ptr, ptr, ptr, ptr, ptr, ptr, ptr, ptr, ptr, ptr, ptr, ptr, ptr, i32, i64 }
%struct.record_layer_st = type { ptr, ptr, ptr, ptr, ptr, ptr, ptr, ptr, i64, i32, i64, [4 x i8], i64, i64, i8, ptr, i32, ptr, ptr, ptr, i64, i64, i64, i64, [32 x %struct.tls_record_st] }
%struct.tls_record_st = type { ptr, i32, i8, ptr, ptr, i64, i64, i16, [8 x i8] }
%struct.ssl_session_st = type { i32, i64, [64 x i8], [512 x i8], i64, [32 x i8], i64, [32 x i8], ptr, ptr, i32, ptr, ptr, ptr, i64, %struct.OSSL_TIME, %struct.OSSL_TIME, %struct.OSSL_TIME, i32, ptr, i64, i32, %struct.crypto_ex_data_st, %struct.anon.3, ptr, ptr, i64, i32, ptr, ptr, ptr, %struct.CRYPTO_REF_COUNT }
%struct.anon.3 = type { ptr, ptr, i64, i64, i32, i32, ptr, i64, i8 }
%struct.ssl_method_st = type { i32, i32, i64, ptr, ptr, ptr, ptr, ptr, ptr, ptr, ptr, ptr, ptr, ptr, ptr, ptr, ptr, ptr, ptr, ptr, ptr, ptr, ptr, ptr, ptr, ptr, ptr, ptr, ptr, ptr, ptr, ptr }
%struct.ssl3_enc_method = type { ptr, ptr, ptr, ptr, ptr, i64, ptr, i64, ptr, ptr, i32, ptr, ptr, ptr }

@.str = private unnamed_addr constant [24 x i8] c"../openssl/ssl/s3_msg.c\00", align 1
@__func__.ssl3_do_change_cipher_spec = private unnamed_addr constant [27 x i8] c"ssl3_do_change_cipher_spec\00", align 1

; Function Attrs: nounwind uwtable
define i32 @ssl3_do_change_cipher_spec(ptr noundef %0) #0 {
  %2 = alloca i32, align 4
  %3 = alloca ptr, align 8
  %4 = alloca i32, align 4
  %5 = alloca ptr, align 8
  %6 = alloca i32, align 4
  store ptr %0, ptr %3, align 8, !tbaa !3
  call void @llvm.lifetime.start.p0(i64 4, ptr %4) #3
  call void @llvm.lifetime.start.p0(i64 8, ptr %5) #3
  %7 = load ptr, ptr %3, align 8, !tbaa !3
  %8 = getelementptr inbounds nuw %struct.ssl_connection_st, ptr %7, i32 0, i32 0
  store ptr %8, ptr %5, align 8, !tbaa !8
  %9 = load ptr, ptr %3, align 8, !tbaa !3
  %10 = getelementptr inbounds nuw %struct.ssl_connection_st, ptr %9, i32 0, i32 8
  %11 = load i32, ptr %10, align 8, !tbaa !10
  %12 = icmp ne i32 %11, 0
  br i1 %12, label %13, label %14

13:                                               ; preds = %1
  store i32 33, ptr %4, align 4, !tbaa !71
  br label %15

14:                                               ; preds = %1
  store i32 17, ptr %4, align 4, !tbaa !71
  br label %15

15:                                               ; preds = %14, %13
  %16 = load ptr, ptr %3, align 8, !tbaa !3
  %17 = getelementptr inbounds nuw %struct.ssl_connection_st, ptr %16, i32 0, i32 24
  %18 = getelementptr inbounds nuw %struct.anon, ptr %17, i32 0, i32 14
  %19 = getelementptr inbounds nuw %struct.anon.0, ptr %18, i32 0, i32 16
  %20 = load ptr, ptr %19, align 8, !tbaa !72
  %21 = icmp eq ptr %20, null
  br i1 %21, label %22, label %57

22:                                               ; preds = %15
  %23 = load ptr, ptr %3, align 8, !tbaa !3
  %24 = getelementptr inbounds nuw %struct.ssl_connection_st, ptr %23, i32 0, i32 54
  %25 = load ptr, ptr %24, align 8, !tbaa !73
  %26 = icmp eq ptr %25, null
  br i1 %26, label %34, label %27

27:                                               ; preds = %22
  %28 = load ptr, ptr %3, align 8, !tbaa !3
  %29 = getelementptr inbounds nuw %struct.ssl_connection_st, ptr %28, i32 0, i32 54
  %30 = load ptr, ptr %29, align 8, !tbaa !73
  %31 = getelementptr inbounds nuw %struct.ssl_session_st, ptr %30, i32 0, i32 1
  %32 = load i64, ptr %31, align 8, !tbaa !74
  %33 = icmp eq i64 %32, 0
  br i1 %33, label %34, label %35

34:                                               ; preds = %27, %22
  call void @ERR_new()
  call void @ERR_set_debug(ptr noundef @.str, i32 noundef 26, ptr noundef @__func__.ssl3_do_change_cipher_spec)
  call void (i32, i32, ptr, ...) @ERR_set_error(i32 noundef 20, i32 noundef 133, ptr noundef null)
  store i32 0, ptr %2, align 4
  store i32 1, ptr %6, align 4
  br label %71

35:                                               ; preds = %27
  %36 = load ptr, ptr %3, align 8, !tbaa !3
  %37 = getelementptr inbounds nuw %struct.ssl_connection_st, ptr %36, i32 0, i32 24
  %38 = getelementptr inbounds nuw %struct.anon, ptr %37, i32 0, i32 14
  %39 = getelementptr inbounds nuw %struct.anon.0, ptr %38, i32 0, i32 6
  %40 = load ptr, ptr %39, align 8, !tbaa !77
  %41 = load ptr, ptr %3, align 8, !tbaa !3
  %42 = getelementptr inbounds nuw %struct.ssl_connection_st, ptr %41, i32 0, i32 54
  %43 = load ptr, ptr %42, align 8, !tbaa !73
  %44 = getelementptr inbounds nuw %struct.ssl_session_st, ptr %43, i32 0, i32 19
  store ptr %40, ptr %44, align 8, !tbaa !78
  %45 = load ptr, ptr %5, align 8, !tbaa !8
  %46 = getelementptr inbounds nuw %struct.ssl_st, ptr %45, i32 0, i32 3
  %47 = load ptr, ptr %46, align 8, !tbaa !79
  %48 = getelementptr inbounds nuw %struct.ssl_method_st, ptr %47, i32 0, i32 28
  %49 = load ptr, ptr %48, align 8, !tbaa !80
  %50 = getelementptr inbounds nuw %struct.ssl3_enc_method, ptr %49, i32 0, i32 0
  %51 = load ptr, ptr %50, align 8, !tbaa !83
  %52 = load ptr, ptr %3, align 8, !tbaa !3
  %53 = call i32 %51(ptr noundef %52)
  %54 = icmp ne i32 %53, 0
  br i1 %54, label %56, label %55

55:                                               ; preds = %35
  store i32 0, ptr %2, align 4
  store i32 1, ptr %6, align 4
  br label %71

56:                                               ; preds = %35
  br label %57

57:                                               ; preds = %56, %15
  %58 = load ptr, ptr %5, align 8, !tbaa !8
  %59 = getelementptr inbounds nuw %struct.ssl_st, ptr %58, i32 0, i32 3
  %60 = load ptr, ptr %59, align 8, !tbaa !79
  %61 = getelementptr inbounds nuw %struct.ssl_method_st, ptr %60, i32 0, i32 28
  %62 = load ptr, ptr %61, align 8, !tbaa !80
  %63 = getelementptr inbounds nuw %struct.ssl3_enc_method, ptr %62, i32 0, i32 2
  %64 = load ptr, ptr %63, align 8, !tbaa !85
  %65 = load ptr, ptr %3, align 8, !tbaa !3
  %66 = load i32, ptr %4, align 4, !tbaa !71
  %67 = call i32 %64(ptr noundef %65, i32 noundef %66)
  %68 = icmp ne i32 %67, 0
  br i1 %68, label %70, label %69

69:                                               ; preds = %57
  store i32 0, ptr %2, align 4
  store i32 1, ptr %6, align 4
  br label %71

70:                                               ; preds = %57
  store i32 1, ptr %2, align 4
  store i32 1, ptr %6, align 4
  br label %71

71:                                               ; preds = %70, %69, %55, %34
  call void @llvm.lifetime.end.p0(i64 8, ptr %5) #3
  call void @llvm.lifetime.end.p0(i64 4, ptr %4) #3
  %72 = load i32, ptr %2, align 4
  ret i32 %72
}