; Function Attrs: nounwind uwtable
define range(i32 0, 2) i32 @ssl3_do_change_cipher_spec(ptr noundef %0) local_unnamed_addr #0 {
  %2 = getelementptr inbounds nuw i8, ptr %0, i64 120
  %3 = load i32, ptr %2, align 8, !tbaa !3
  %.not = icmp eq i32 %3, 0
  %. = select i1 %.not, i32 17, i32 33
  %4 = getelementptr inbounds nuw i8, ptr %0, i64 872
  %5 = load ptr, ptr %4, align 8, !tbaa !69
  %6 = icmp eq ptr %5, null
  br i1 %6, label %7, label %26

7:                                                ; preds = %1
  %8 = getelementptr inbounds nuw i8, ptr %0, i64 2304
  %9 = load ptr, ptr %8, align 8, !tbaa !70
  %10 = icmp eq ptr %9, null
  br i1 %10, label %15, label %11

11:                                               ; preds = %7
  %12 = getelementptr inbounds nuw i8, ptr %9, i64 8
  %13 = load i64, ptr %12, align 8, !tbaa !71
  %14 = icmp eq i64 %13, 0
  br i1 %14, label %15, label %16

15:                                               ; preds = %11, %7
  tail call void @ERR_new() #3
  tail call void @ERR_set_debug(ptr noundef nonnull @.str, i32 noundef 26, ptr noundef nonnull @__func__.ssl3_do_change_cipher_spec) #3
  tail call void (i32, i32, ptr, ...) @ERR_set_error(i32 noundef 20, i32 noundef 133, ptr noundef null) #3
  br label %34

16:                                               ; preds = %11
  %17 = getelementptr inbounds nuw i8, ptr %0, i64 768
  %18 = load ptr, ptr %17, align 8, !tbaa !74
  %19 = getelementptr inbounds nuw i8, ptr %9, i64 760
  store ptr %18, ptr %19, align 8, !tbaa !75
  %20 = getelementptr inbounds nuw i8, ptr %0, i64 24
  %21 = load ptr, ptr %20, align 8, !tbaa !76
  %22 = getelementptr inbounds nuw i8, ptr %21, i64 216
  %23 = load ptr, ptr %22, align 8, !tbaa !77
  %24 = load ptr, ptr %23, align 8, !tbaa !80
  %25 = tail call i32 %24(ptr noundef nonnull %0) #3
  %.not14 = icmp eq i32 %25, 0
  br i1 %.not14, label %34, label %26

26:                                               ; preds = %16, %1
  %27 = getelementptr inbounds nuw i8, ptr %0, i64 24
  %28 = load ptr, ptr %27, align 8, !tbaa !76
  %29 = getelementptr inbounds nuw i8, ptr %28, i64 216
  %30 = load ptr, ptr %29, align 8, !tbaa !77
  %31 = getelementptr inbounds nuw i8, ptr %30, i64 16
  %32 = load ptr, ptr %31, align 8, !tbaa !82
  %33 = tail call i32 %32(ptr noundef nonnull %0, i32 noundef %.) #3
  %.not15 = icmp ne i32 %33, 0
  %.16 = zext i1 %.not15 to i32
  br label %34

34:                                               ; preds = %26, %16, %15
  %.0 = phi i32 [ 0, %15 ], [ 0, %16 ], [ %.16, %26 ]
  ret i32 %.0
}